target datalayout = "e-m:e-p270:32:32-p271:32:32-p272:64:64-i64:64-i128:128-f80:128-n8:16:32:64-S128"
target triple = "x86_64-unknown-linux-gnu"

%"struct.rocksdb::Cache::CacheItemHelper" = type { ptr, ptr, ptr, ptr, i32, ptr }
%class.anon = type { i8 }
%class.anon.33 = type { i8 }

@_ZZNK7rocksdb24CompressedSecondaryCache9GetHelperEbE7kHelper = internal global %"struct.rocksdb::Cache::CacheItemHelper" zeroinitializer, align 8
@_ZGVZNK7rocksdb24CompressedSecondaryCache9GetHelperEbE7kHelper = internal global i64 0, align 8
@_ZZNK7rocksdb24CompressedSecondaryCache9GetHelperEbE7kHelper_0 = internal global %"struct.rocksdb::Cache::CacheItemHelper" zeroinitializer, align 8
@_ZGVZNK7rocksdb24CompressedSecondaryCache9GetHelperEbE7kHelper_0 = internal global i64 0, align 8

; Function Attrs: mustprogress nounwind uwtable
define linkonce_odr void @_ZN7rocksdb5Cache15CacheItemHelperC2ENS_14CacheEntryRoleEPFvPvPNS_15MemoryAllocatorEEPFmS3_EPFNS_6StatusES3_mmPcEPFSA_RKNS_5SliceENS_15CompressionTypeENS_9CacheTierEPNS0_13CreateContextES5_PS3_PmEPKS1_(ptr noundef nonnull align 8 dereferenceable(48) %this, i32 noundef %_role, ptr noundef %_del_cb, ptr noundef %_size_cb, ptr noundef %_saveto_cb, ptr noundef %_create_cb, ptr noundef %_without_secondary_compat) unnamed_addr #1 comdat align 2 {
entry:
  %this.addr = alloca ptr, align 8
  %_role.addr = alloca i32, align 4
  %_del_cb.addr = alloca ptr, align 8
  %_size_cb.addr = alloca ptr, align 8
  %_saveto_cb.addr = alloca ptr, align 8
  %_create_cb.addr = alloca ptr, align 8
  %_without_secondary_compat.addr = alloca ptr, align 8
  store ptr %this, ptr %this.addr, align 8
  store i32 %_role, ptr %_role.addr, align 4
  store ptr %_del_cb, ptr %_del_cb.addr, align 8
  store ptr %_size_cb, ptr %_size_cb.addr, align 8
  store ptr %_saveto_cb, ptr %_saveto_cb.addr, align 8
  store ptr %_create_cb, ptr %_create_cb.addr, align 8
  store ptr %_without_secondary_compat, ptr %_without_secondary_compat.addr, align 8
  %this1 = load ptr, ptr %this.addr, align 8
  %del_cb = getelementptr inbounds %"struct.rocksdb::Cache::CacheItemHelper", ptr %this1, i32 0, i32 0
  %0 = load ptr, ptr %_del_cb.addr, align 8
  store ptr %0, ptr %del_cb, align 8
  %size_cb = getelementptr inbounds %"struct.rocksdb::Cache::CacheItemHelper", ptr %this1, i32 0, i32 1
  %1 = load ptr, ptr %_size_cb.addr, align 8
  store ptr %1, ptr %size_cb, align 8
  %saveto_cb = getelementptr inbounds %"struct.rocksdb::Cache::CacheItemHelper", ptr %this1, i32 0, i32 2
  %2 = load ptr, ptr %_saveto_cb.addr, align 8
  store ptr %2, ptr %saveto_cb, align 8
  %create_cb = getelementptr inbounds %"struct.rocksdb::Cache::CacheItemHelper", ptr %this1, i32 0, i32 3
  %3 = load ptr, ptr %_create_cb.addr, align 8
  store ptr %3, ptr %create_cb, align 8
  %role = getelementptr inbounds %"struct.rocksdb::Cache::CacheItemHelper", ptr %this1, i32 0, i32 4
  %4 = load i32, ptr %_role.addr, align 4
  store i32 %4, ptr %role, align 8
  %without_secondary_compat = getelementptr inbounds %"struct.rocksdb::Cache::CacheItemHelper", ptr %this1, i32 0, i32 5
  %5 = load ptr, ptr %_without_secondary_compat.addr, align 8
  store ptr %5, ptr %without_secondary_compat, align 8
  ret void
}

; Function Attrs: mustprogress nounwind uwtable
define internal noundef ptr @"_ZZNK7rocksdb24CompressedSecondaryCache9GetHelperEbENK3$_1cvPFvPvPNS_15MemoryAllocatorEEEv"(ptr noundef nonnull align 1 dereferenceable(1) %this) #1 align 2 {
entry:
  %this.addr = alloca ptr, align 8
  store ptr %this, ptr %this.addr, align 8
  ret ptr @"_ZZNK7rocksdb24CompressedSecondaryCache9GetHelperEbEN3$_18__invokeEPvPNS_15MemoryAllocatorE"
}

; Function Attrs: mustprogress uwtable
define linkonce_odr void @_ZN7rocksdb5Cache15CacheItemHelperC2ENS_14CacheEntryRoleEPFvPvPNS_15MemoryAllocatorEE(ptr noundef nonnull align 8 dereferenceable(48) %this, i32 noundef %_role, ptr noundef %_del_cb) unnamed_addr #0 comdat align 2 {
entry:
  %this.addr = alloca ptr, align 8
  %_role.addr = alloca i32, align 4
  %_del_cb.addr = alloca ptr, align 8
  store ptr %this, ptr %this.addr, align 8
  store i32 %_role, ptr %_role.addr, align 4
  store ptr %_del_cb, ptr %_del_cb.addr, align 8
  %this1 = load ptr, ptr %this.addr, align 8
  %0 = load i32, ptr %_role.addr, align 4
  %1 = load ptr, ptr %_del_cb.addr, align 8
  call void @_ZN7rocksdb5Cache15CacheItemHelperC2ENS_14CacheEntryRoleEPFvPvPNS_15MemoryAllocatorEEPFmS3_EPFNS_6StatusES3_mmPcEPFSA_RKNS_5SliceENS_15CompressionTypeENS_9CacheTierEPNS0_13CreateContextES5_PS3_PmEPKS1_(ptr noundef nonnull align 8 dereferenceable(48) %this1, i32 noundef %0, ptr noundef %1, ptr noundef null, ptr noundef null, ptr noundef null, ptr noundef %this1)
  ret void
}

; Function Attrs: mustprogress nounwind uwtable
define internal noundef ptr @"_ZZNK7rocksdb24CompressedSecondaryCache9GetHelperEbENK3$_0cvPFvPvPNS_15MemoryAllocatorEEEv"(ptr noundef nonnull align 1 dereferenceable(1) %this) #1 align 2 {
entry:
  %this.addr = alloca ptr, align 8
  store ptr %this, ptr %this.addr, align 8
  ret ptr @"_ZZNK7rocksdb24CompressedSecondaryCache9GetHelperEbEN3$_08__invokeEPvPNS_15MemoryAllocatorE"
}

; Function Attrs: mustprogress uwtable
define noundef ptr @_ZNK7rocksdb24CompressedSecondaryCache9GetHelperEb(ptr noundef nonnull align 8 dereferenceable(217) %this, i1 noundef zeroext %enable_custom_split_merge) #0 align 2 personality ptr @__gxx_personality_v0 {
entry:
  %retval = alloca ptr, align 8
  %this.addr = alloca ptr, align 8
  %enable_custom_split_merge.addr = alloca i8, align 1
  %ref.tmp = alloca %class.anon, align 1
  %exn.slot = alloca ptr, align 8
  %ehselector.slot = alloca i32, align 4
  %ref.tmp7 = alloca %class.anon.33, align 1
  store ptr %this, ptr %this.addr, align 8
  %frombool = zext i1 %enable_custom_split_merge to i8
  store i8 %frombool, ptr %enable_custom_split_merge.addr, align 1
  %0 = load i8, ptr %enable_custom_split_merge.addr, align 1
  %tobool = trunc i8 %0 to i1
  br i1 %tobool, label %if.then, label %if.else

if.then:                                          ; preds = %entry
  %1 = load atomic i8, ptr @_ZGVZNK7rocksdb24CompressedSecondaryCache9GetHelperEbE7kHelper acquire, align 8
  %guard.uninitialized = icmp eq i8 %1, 0
  br i1 %guard.uninitialized, label %init.check, label %init.end, !prof !7

init.check:                                       ; preds = %if.then
  %2 = call i32 @__cxa_guard_acquire(ptr @_ZGVZNK7rocksdb24CompressedSecondaryCache9GetHelperEbE7kHelper) #9
  %tobool2 = icmp ne i32 %2, 0
  br i1 %tobool2, label %init, label %init.end

init:                                             ; preds = %init.check
  %call = call noundef ptr @"_ZZNK7rocksdb24CompressedSecondaryCache9GetHelperEbENK3$_0cvPFvPvPNS_15MemoryAllocatorEEEv"(ptr noundef nonnull align 1 dereferenceable(1) %ref.tmp) #9
  invoke void @_ZN7rocksdb5Cache15CacheItemHelperC2ENS_14CacheEntryRoleEPFvPvPNS_15MemoryAllocatorEE(ptr noundef nonnull align 8 dereferenceable(48) @_ZZNK7rocksdb24CompressedSecondaryCache9GetHelperEbE7kHelper, i32 noundef 13, ptr noundef %call)
          to label %invoke.cont unwind label %lpad

invoke.cont:                                      ; preds = %init
  call void @__cxa_guard_release(ptr @_ZGVZNK7rocksdb24CompressedSecondaryCache9GetHelperEbE7kHelper) #9
  br label %init.end

init.end:                                         ; preds = %invoke.cont, %init.check, %if.then
  store ptr @_ZZNK7rocksdb24CompressedSecondaryCache9GetHelperEbE7kHelper, ptr %retval, align 8
  br label %return

lpad:                                             ; preds = %init
  %3 = landingpad { ptr, i32 }
          cleanup
  %4 = extractvalue { ptr, i32 } %3, 0
  store ptr %4, ptr %exn.slot, align 8
  %5 = extractvalue { ptr, i32 } %3, 1
  store i32 %5, ptr %ehselector.slot, align 4
  call void @__cxa_guard_abort(ptr @_ZGVZNK7rocksdb24CompressedSecondaryCache9GetHelperEbE7kHelper) #9
  br label %eh.resume

if.else:                                          ; preds = %entry
  %6 = load atomic i8, ptr @_ZGVZNK7rocksdb24CompressedSecondaryCache9GetHelperEbE7kHelper_0 acquire, align 8
  %guard.uninitialized3 = icmp eq i8 %6, 0
  br i1 %guard.uninitialized3, label %init.check4, label %init.end11, !prof !7

init.check4:                                      ; preds = %if.else
  %7 = call i32 @__cxa_guard_acquire(ptr @_ZGVZNK7rocksdb24CompressedSecondaryCache9GetHelperEbE7kHelper_0) #9
  %tobool5 = icmp ne i32 %7, 0
  br i1 %tobool5, label %init6, label %init.end11

init6:                                            ; preds = %init.check4
  %call8 = call noundef ptr @"_ZZNK7rocksdb24CompressedSecondaryCache9GetHelperEbENK3$_1cvPFvPvPNS_15MemoryAllocatorEEEv"(ptr noundef nonnull align 1 dereferenceable(1) %ref.tmp7) #9
  invoke void @_ZN7rocksdb5Cache15CacheItemHelperC2ENS_14CacheEntryRoleEPFvPvPNS_15MemoryAllocatorEE(ptr noundef nonnull align 8 dereferenceable(48) @_ZZNK7rocksdb24CompressedSecondaryCache9GetHelperEbE7kHelper_0, i32 noundef 13, ptr noundef %call8)
          to label %invoke.cont10 unwind label %lpad9

invoke.cont10:                                    ; preds = %init6
  call void @__cxa_guard_release(ptr @_ZGVZNK7rocksdb24CompressedSecondaryCache9GetHelperEbE7kHelper_0) #9
  br label %init.end11

init.end11:                                       ; preds = %invoke.cont10, %init.check4, %if.else
  store ptr @_ZZNK7rocksdb24CompressedSecondaryCache9GetHelperEbE7kHelper_0, ptr %retval, align 8
  br label %return

lpad9:                                            ; preds = %init6
  %8 = landingpad { ptr, i32 }
          cleanup
  %9 = extractvalue { ptr, i32 } %8, 0
  store ptr %9, ptr %exn.slot, align 8
  %10 = extractvalue { ptr, i32 } %8, 1
  store i32 %10, ptr %ehselector.slot, align 4
  call void @__cxa_guard_abort(ptr @_ZGVZNK7rocksdb24CompressedSecondaryCache9GetHelperEbE7kHelper_0) #9
  br label %eh.resume

return:                                           ; preds = %init.end11, %init.end
  %11 = load ptr, ptr %retval, align 8
  ret ptr %11

eh.resume:                                        ; preds = %lpad9, %lpad
  %exn = load ptr, ptr %exn.slot, align 8
  %sel = load i32, ptr %ehselector.slot, align 4
  %lpad.val = insertvalue { ptr, i32 } poison, ptr %exn, 0
  %lpad.val12 = insertvalue { ptr, i32 } %lpad.val, i32 %sel, 1
  resume { ptr, i32 } %lpad.val12
}