; Function Attrs: mustprogress nofree nounwind uwtable
define noundef nonnull ptr @_ZNK7rocksdb24CompressedSecondaryCache9GetHelperEb(ptr nocapture noundef nonnull readnone align 8 dereferenceable(217) %this, i1 noundef zeroext %enable_custom_split_merge) local_unnamed_addr #5 align 2 personality ptr @__gxx_personality_v0 {
entry:
  br i1 %enable_custom_split_merge, label %if.then, label %if.else

if.then:                                          ; preds = %entry
  %0 = load atomic i8, ptr @_ZGVZNK7rocksdb24CompressedSecondaryCache9GetHelperEbE7kHelper acquire, align 8
  %guard.uninitialized = icmp eq i8 %0, 0
  br i1 %guard.uninitialized, label %init.check, label %return, !prof !17

init.check:                                       ; preds = %if.then
  %1 = tail call i32 @__cxa_guard_acquire(ptr nonnull @_ZGVZNK7rocksdb24CompressedSecondaryCache9GetHelperEbE7kHelper) #21
  %tobool2.not = icmp eq i32 %1, 0
  br i1 %tobool2.not, label %return, label %invoke.cont

invoke.cont:                                      ; preds = %init.check
  store ptr @"_ZZNK7rocksdb24CompressedSecondaryCache9GetHelperEbEN3$_08__invokeEPvPNS_15MemoryAllocatorE", ptr @_ZZNK7rocksdb24CompressedSecondaryCache9GetHelperEbE7kHelper, align 8
  tail call void @llvm.memset.p0.i64(ptr noundef nonnull align 8 dereferenceable(24) getelementptr inbounds (%"struct.rocksdb::Cache::CacheItemHelper", ptr @_ZZNK7rocksdb24CompressedSecondaryCache9GetHelperEbE7kHelper, i64 0, i32 1), i8 0, i64 24, i1 false)
  store i32 13, ptr getelementptr inbounds (%"struct.rocksdb::Cache::CacheItemHelper", ptr @_ZZNK7rocksdb24CompressedSecondaryCache9GetHelperEbE7kHelper, i64 0, i32 4), align 8
  store ptr @_ZZNK7rocksdb24CompressedSecondaryCache9GetHelperEbE7kHelper, ptr getelementptr inbounds (%"struct.rocksdb::Cache::CacheItemHelper", ptr @_ZZNK7rocksdb24CompressedSecondaryCache9GetHelperEbE7kHelper, i64 0, i32 5), align 8
  br label %return.sink.split

if.else:                                          ; preds = %entry
  %2 = load atomic i8, ptr @_ZGVZNK7rocksdb24CompressedSecondaryCache9GetHelperEbE7kHelper_0 acquire, align 8
  %guard.uninitialized3 = icmp eq i8 %2, 0
  br i1 %guard.uninitialized3, label %init.check4, label %return, !prof !17

init.check4:                                      ; preds = %if.else
  %3 = tail call i32 @__cxa_guard_acquire(ptr nonnull @_ZGVZNK7rocksdb24CompressedSecondaryCache9GetHelperEbE7kHelper_0) #21
  %tobool5.not = icmp eq i32 %3, 0
  br i1 %tobool5.not, label %return, label %invoke.cont10

invoke.cont10:                                    ; preds = %init.check4
  store ptr @"_ZZNK7rocksdb24CompressedSecondaryCache9GetHelperEbEN3$_18__invokeEPvPNS_15MemoryAllocatorE", ptr @_ZZNK7rocksdb24CompressedSecondaryCache9GetHelperEbE7kHelper_0, align 8
  tail call void @llvm.memset.p0.i64(ptr noundef nonnull align 8 dereferenceable(24) getelementptr inbounds (%"struct.rocksdb::Cache::CacheItemHelper", ptr @_ZZNK7rocksdb24CompressedSecondaryCache9GetHelperEbE7kHelper_0, i64 0, i32 1), i8 0, i64 24, i1 false)
  store i32 13, ptr getelementptr inbounds (%"struct.rocksdb::Cache::CacheItemHelper", ptr @_ZZNK7rocksdb24CompressedSecondaryCache9GetHelperEbE7kHelper_0, i64 0, i32 4), align 8
  store ptr @_ZZNK7rocksdb24CompressedSecondaryCache9GetHelperEbE7kHelper_0, ptr getelementptr inbounds (%"struct.rocksdb::Cache::CacheItemHelper", ptr @_ZZNK7rocksdb24CompressedSecondaryCache9GetHelperEbE7kHelper_0, i64 0, i32 5), align 8
  br label %return.sink.split

return.sink.split:                                ; preds = %invoke.cont, %invoke.cont10
  %_ZGVZNK7rocksdb24CompressedSecondaryCache9GetHelperEbE7kHelper_0.sink = phi ptr [ @_ZGVZNK7rocksdb24CompressedSecondaryCache9GetHelperEbE7kHelper_0, %invoke.cont10 ], [ @_ZGVZNK7rocksdb24CompressedSecondaryCache9GetHelperEbE7kHelper, %invoke.cont ]
  %retval.0.ph = phi ptr [ @_ZZNK7rocksdb24CompressedSecondaryCache9GetHelperEbE7kHelper_0, %invoke.cont10 ], [ @_ZZNK7rocksdb24CompressedSecondaryCache9GetHelperEbE7kHelper, %invoke.cont ]
  tail call void @__cxa_guard_release(ptr nonnull %_ZGVZNK7rocksdb24CompressedSecondaryCache9GetHelperEbE7kHelper_0.sink) #21
  br label %return

return:                                           ; preds = %return.sink.split, %if.else, %init.check4, %if.then, %init.check
  %retval.0 = phi ptr [ @_ZZNK7rocksdb24CompressedSecondaryCache9GetHelperEbE7kHelper, %init.check ], [ @_ZZNK7rocksdb24CompressedSecondaryCache9GetHelperEbE7kHelper, %if.then ], [ @_ZZNK7rocksdb24CompressedSecondaryCache9GetHelperEbE7kHelper_0, %init.check4 ], [ @_ZZNK7rocksdb24CompressedSecondaryCache9GetHelperEbE7kHelper_0, %if.else ], [ %retval.0.ph, %return.sink.split ]
  ret ptr %retval.0
}